target datalayout = "e-m:e-p270:32:32-p271:32:32-p272:64:64-i64:64-i128:128-f80:128-n8:16:32:64-S128"
target triple = "x86_64-pc-linux-gnu"

%class.LogTagSet = type { ptr, i64, [5 x i32], [4 x i8], %class.LogOutputList, %class.LogDecorators, ptr }
%class.LogOutputList = type <{ [6 x ptr], i32, [4 x i8] }>
%class.LogDecorators = type { i32 }
%class.XMark = type <{ ptr, ptr, [48 x i8], %class.XMarkStackAllocator, %class.XMarkStripeSet, %class.XMarkTerminate, i8, [7 x i8], i64, i64, i64, i64, i64, i64, i32, [4 x i8] }>
%class.XMarkStackAllocator = type { %class.XStackList, [56 x i8], %class.XMarkStackSpace }
%class.XStackList = type { ptr }
%class.XMarkStackSpace = type { %class.XLock, i64, i64, i64 }
%class.XLock = type { %class.PlatformMutex }
%class.PlatformMutex = type { %union.pthread_mutex_t }
%union.pthread_mutex_t = type { %struct.__pthread_mutex_s }
%struct.__pthread_mutex_s = type { i32, i32, i32, i32, i32, i16, i16, %struct.__pthread_internal_list }
%struct.__pthread_internal_list = type { ptr, ptr }
%class.XMarkStripeSet = type { i64, i64, [48 x i8], [16 x %class.XMarkStripe] }
%class.XMarkStripe = type { %class.XStackList.0, [56 x i8], %class.XStackList.0, [56 x i8] }
%class.XStackList.0 = type { ptr }
%class.XMarkTerminate = type { i32, [60 x i8], i32, i32, [56 x i8] }
%class.LogTargetImpl = type { i8 }
%class.XVerifyMarkStacksEmptyClosure = type { %class.ThreadClosure, ptr }
%class.ThreadClosure = type { ptr }

@ZVerifyMarking = external global i8, align 1
@XGlobalSeqNum = external global i32, align 4
@.str.11 = private unnamed_addr constant [32 x i8] c"Mark Worker/Stripe Distribution\00", align 1
@.str.12 = private unnamed_addr constant [35 x i8] c"  Worker %u(%u) -> Stripe %lu(%lu)\00", align 1
@g_assert_poison = external global ptr, align 8
@.str.13 = private unnamed_addr constant [33 x i8] c"src/hotspot/share/gc/x/xMark.cpp\00", align 1
@.str.14 = private unnamed_addr constant [38 x i8] c"guarantee(_stripes.is_empty()) failed\00", align 1
@.str.15 = private unnamed_addr constant [16 x i8] c"Should be empty\00", align 1
@_ZN16LogTagSetMappingILN6LogTag4typeE49ELS1_80ELS1_0ELS1_0ELS1_0ELS1_0EE7_tagsetE = linkonce_odr hidden global %class.LogTagSet zeroinitializer, comdat, align 8
@_ZTV13ThreadClosure = linkonce_odr hidden unnamed_addr constant { [3 x ptr] } { [3 x ptr] [ptr null, ptr null, ptr @__cxa_pure_virtual] }, comdat, align 8
@_ZTV29XVerifyMarkStacksEmptyClosure = linkonce_odr hidden unnamed_addr constant { [3 x ptr] } { [3 x ptr] [ptr null, ptr null, ptr @_ZN29XVerifyMarkStacksEmptyClosure9do_threadEP6Thread] }, comdat, align 8

; Function Attrs: mustprogress nounwind uwtable
define linkonce_odr hidden noundef i32 @_ZN21CountLeadingZerosImplIjLm4EE4doitEj(i32 noundef %0) #1 comdat align 2 {
  %2 = alloca i32, align 4
  store i32 %0, ptr %2, align 4
  %3 = load i32, ptr %2, align 4
  %4 = call i32 @llvm.ctlz.i32(i32 %3, i1 true)
  ret i32 %4
}

; Function Attrs: mustprogress nounwind uwtable
define linkonce_odr hidden noundef i32 @_Z19count_leading_zerosIjEjT_(i32 noundef %0) #1 comdat {
  %2 = alloca i32, align 4
  store i32 %0, ptr %2, align 4
  %3 = load i32, ptr %2, align 4
  %4 = call noundef i32 @_ZN21CountLeadingZerosImplIjLm4EE4doitEj(i32 noundef %3)
  ret i32 %4
}

; Function Attrs: mustprogress nounwind uwtable
define linkonce_odr hidden noundef zeroext i1 @_ZNK13LogOutputList8is_levelEN8LogLevel4typeE(ptr noundef nonnull align 8 dereferenceable(52) %0, i32 noundef %1) #1 comdat align 2 {
  %3 = alloca ptr, align 8
  %4 = alloca i32, align 4
  store ptr %0, ptr %3, align 8
  store i32 %1, ptr %4, align 4
  %5 = load ptr, ptr %3, align 8
  %6 = getelementptr inbounds %class.LogOutputList, ptr %5, i32 0, i32 0
  %7 = load i32, ptr %4, align 4
  %8 = zext i32 %7 to i64
  %9 = getelementptr inbounds [6 x ptr], ptr %6, i64 0, i64 %8
  %10 = load volatile ptr, ptr %9, align 8
  %11 = icmp ne ptr %10, null
  ret i1 %11
}

; Function Attrs: mustprogress nounwind uwtable
define linkonce_odr hidden noundef i32 @_Z5log2iIjTnNSt9enable_ifIXcvbsr3std11is_integralIT_EE5valueEiE4typeELi0EEiS1_(i32 noundef %0) #1 comdat {
  %2 = alloca i32, align 4
  %3 = alloca i32, align 4
  store i32 %0, ptr %2, align 4
  store i32 32, ptr %3, align 4
  %4 = load i32, ptr %2, align 4
  %5 = call noundef i32 @_Z19count_leading_zerosIjEjT_(i32 noundef %4)
  %6 = sub i32 32, %5
  %7 = sub i32 %6, 1
  ret i32 %7
}

; Function Attrs: mustprogress nounwind uwtable
define linkonce_odr hidden void @_ZN13ThreadClosureC2Ev(ptr noundef nonnull align 8 dereferenceable(8) %0) unnamed_addr #1 comdat align 2 {
  %2 = alloca ptr, align 8
  store ptr %0, ptr %2, align 8
  %3 = load ptr, ptr %2, align 8
  store ptr getelementptr inbounds inrange(-16, 8) ({ [3 x ptr] }, ptr @_ZTV13ThreadClosure, i32 0, i32 0, i32 2), ptr %3, align 8
  ret void
}

; Function Attrs: mustprogress nounwind uwtable
define linkonce_odr hidden noundef zeroext i1 @_ZNK9LogTagSet8is_levelEN8LogLevel4typeE(ptr noundef nonnull align 8 dereferenceable(112) %0, i32 noundef %1) #1 comdat align 2 {
  %3 = alloca ptr, align 8
  %4 = alloca i32, align 4
  store ptr %0, ptr %3, align 8
  store i32 %1, ptr %4, align 4
  %5 = load ptr, ptr %3, align 8
  %6 = getelementptr inbounds %class.LogTagSet, ptr %5, i32 0, i32 4
  %7 = load i32, ptr %4, align 4
  %8 = call noundef zeroext i1 @_ZNK13LogOutputList8is_levelEN8LogLevel4typeE(ptr noundef nonnull align 8 dereferenceable(52) %6, i32 noundef %7)
  ret i1 %8
}

; Function Attrs: mustprogress nounwind uwtable
define linkonce_odr hidden noundef nonnull align 8 dereferenceable(112) ptr @_ZN16LogTagSetMappingILN6LogTag4typeE49ELS1_80ELS1_0ELS1_0ELS1_0ELS1_0EE6tagsetEv() #1 comdat align 2 {
  ret ptr @_ZN16LogTagSetMappingILN6LogTag4typeE49ELS1_80ELS1_0ELS1_0ELS1_0ELS1_0EE7_tagsetE
}

; Function Attrs: mustprogress nounwind uwtable
define linkonce_odr hidden noundef i64 @_Z4MIN2ImET_S0_S0_(i64 noundef %0, i64 noundef %1) #1 comdat {
  %3 = alloca i64, align 8
  %4 = alloca i64, align 8
  store i64 %0, ptr %3, align 8
  store i64 %1, ptr %4, align 8
  %5 = load i64, ptr %3, align 8
  %6 = load i64, ptr %4, align 8
  %7 = icmp ult i64 %5, %6
  br i1 %7, label %8, label %10

8:                                                ; preds = %2
  %9 = load i64, ptr %3, align 8
  br label %12

10:                                               ; preds = %2
  %11 = load i64, ptr %4, align 8
  br label %12

12:                                               ; preds = %10, %8
  %13 = phi i64 [ %9, %8 ], [ %11, %10 ]
  ret i64 %13
}

; Function Attrs: mustprogress nounwind uwtable
define linkonce_odr hidden noundef i32 @_Z21round_down_power_of_2IjTnNSt9enable_ifIXcvbsr3std11is_integralIT_EE5valueEiE4typeELi0EES1_S1_(i32 noundef %0) #1 comdat {
  %2 = alloca i32, align 4
  store i32 %0, ptr %2, align 4
  %3 = load i32, ptr %2, align 4
  %4 = call noundef i32 @_Z5log2iIjTnNSt9enable_ifIXcvbsr3std11is_integralIT_EE5valueEiE4typeELi0EEiS1_(i32 noundef %3)
  %5 = shl i32 1, %4
  ret i32 %5
}

; Function Attrs: mustprogress nounwind uwtable
define linkonce_odr hidden void @_ZN29XVerifyMarkStacksEmptyClosureC2EPK14XMarkStripeSet(ptr noundef nonnull align 8 dereferenceable(16) %0, ptr noundef %1) unnamed_addr #1 comdat align 2 {
  %3 = alloca ptr, align 8
  %4 = alloca ptr, align 8
  store ptr %0, ptr %3, align 8
  store ptr %1, ptr %4, align 8
  %5 = load ptr, ptr %3, align 8
  call void @_ZN13ThreadClosureC2Ev(ptr noundef nonnull align 8 dereferenceable(8) %5) #11
  store ptr getelementptr inbounds inrange(-16, 8) ({ [3 x ptr] }, ptr @_ZTV29XVerifyMarkStacksEmptyClosure, i32 0, i32 0, i32 2), ptr %5, align 8
  %6 = getelementptr inbounds %class.XVerifyMarkStacksEmptyClosure, ptr %5, i32 0, i32 1
  %7 = load ptr, ptr %4, align 8
  store ptr %7, ptr %6, align 8
  ret void
}

; Function Attrs: mustprogress nounwind uwtable
define linkonce_odr hidden noundef i64 @_ZNK14XMarkStripeSet9stripe_idEPK11XMarkStripe(ptr noundef nonnull align 64 dereferenceable(2112) %0, ptr noundef %1) #1 comdat align 2 {
  %3 = alloca ptr, align 8
  %4 = alloca ptr, align 8
  %5 = alloca i64, align 8
  store ptr %0, ptr %3, align 8
  store ptr %1, ptr %4, align 8
  %6 = load ptr, ptr %3, align 8
  %7 = load ptr, ptr %4, align 8
  %8 = ptrtoint ptr %7 to i64
  %9 = getelementptr inbounds %class.XMarkStripeSet, ptr %6, i32 0, i32 3
  %10 = getelementptr inbounds [16 x %class.XMarkStripe], ptr %9, i64 0, i64 0
  %11 = ptrtoint ptr %10 to i64
  %12 = sub i64 %8, %11
  %13 = udiv i64 %12, 128
  store i64 %13, ptr %5, align 8
  %14 = load i64, ptr %5, align 8
  ret i64 %14
}

; Function Attrs: mustprogress nounwind uwtable
define linkonce_odr hidden noundef zeroext i1 @_ZN13LogTargetImplILN8LogLevel4typeE2ELN6LogTag4typeE49ELS3_80ELS3_0ELS3_0ELS3_0ELS3_0EE10is_enabledEv() #1 comdat align 2 {
  %1 = call noundef nonnull align 8 dereferenceable(112) ptr @_ZN16LogTagSetMappingILN6LogTag4typeE49ELS1_80ELS1_0ELS1_0ELS1_0ELS1_0EE6tagsetEv()
  %2 = call noundef zeroext i1 @_ZNK9LogTagSet8is_levelEN8LogLevel4typeE(ptr noundef nonnull align 8 dereferenceable(112) %1, i32 noundef 2)
  ret i1 %2
}

; Function Attrs: mustprogress nounwind uwtable
define linkonce_odr hidden void @_ZN13LogTargetImplILN8LogLevel4typeE2ELN6LogTag4typeE49ELS3_80ELS3_0ELS3_0ELS3_0ELS3_0EEC2Ev(ptr noundef nonnull align 1 dereferenceable(1) %0) unnamed_addr #1 comdat align 2 {
  %2 = alloca ptr, align 8
  store ptr %0, ptr %2, align 8
  ret void
}

; Function Attrs: mustprogress nounwind uwtable
define hidden noundef i64 @_ZNK5XMark18calculate_nstripesEj(ptr noundef nonnull align 64 dereferenceable(2492) %0, i32 noundef %1) #1 align 2 {
  %3 = alloca ptr, align 8
  %4 = alloca i32, align 4
  %5 = alloca i64, align 8
  store ptr %0, ptr %3, align 8
  store i32 %1, ptr %4, align 4
  %6 = load i32, ptr %4, align 4
  %7 = call noundef i32 @_Z21round_down_power_of_2IjTnNSt9enable_ifIXcvbsr3std11is_integralIT_EE5valueEiE4typeELi0EES1_S1_(i32 noundef %6)
  %8 = zext i32 %7 to i64
  store i64 %8, ptr %5, align 8
  %9 = load i64, ptr %5, align 8
  %10 = call noundef i64 @_Z4MIN2ImET_S0_S0_(i64 noundef %9, i64 noundef 16)
  ret i64 %10
}

; Function Attrs: mustprogress nounwind uwtable
define hidden void @_ZNK5XMark23verify_all_stacks_emptyEv(ptr noundef nonnull align 64 dereferenceable(2492) %0) #1 align 2 {
  %2 = alloca ptr, align 8
  %3 = alloca %class.XVerifyMarkStacksEmptyClosure, align 8
  store ptr %0, ptr %2, align 8
  %4 = load ptr, ptr %2, align 8
  %5 = getelementptr inbounds %class.XMark, ptr %4, i32 0, i32 4
  call void @_ZN29XVerifyMarkStacksEmptyClosureC2EPK14XMarkStripeSet(ptr noundef nonnull align 8 dereferenceable(16) %3, ptr noundef %5)
  call void @_ZN7Threads10threads_doEP13ThreadClosure(ptr noundef %3)
  br label %6

6:                                                ; preds = %1
  %7 = getelementptr inbounds %class.XMark, ptr %4, i32 0, i32 4
  %8 = call noundef zeroext i1 @_ZNK14XMarkStripeSet8is_emptyEv(ptr noundef nonnull align 64 dereferenceable(2112) %7)
  br i1 %8, label %11, label %9

9:                                                ; preds = %6
  %10 = load ptr, ptr @g_assert_poison, align 8
  store i8 88, ptr %10, align 1
  call void (ptr, i32, ptr, ptr, ...) @_Z15report_vm_errorPKciS0_S0_z(ptr noundef @.str.13, i32 noundef 876, ptr noundef @.str.14, ptr noundef @.str.15) #10
  unreachable

11:                                               ; preds = %6
  br label %12

12:                                               ; preds = %11
  ret void
}

; Function Attrs: mustprogress nounwind uwtable
define hidden void @_ZN5XMark5startEv(ptr noundef nonnull align 64 dereferenceable(2492) %0) #1 align 2 {
  %2 = alloca ptr, align 8
  %3 = alloca i64, align 8
  %4 = alloca %class.LogTargetImpl, align 1
  %5 = alloca i32, align 4
  %6 = alloca ptr, align 8
  %7 = alloca i64, align 8
  store ptr %0, ptr %2, align 8
  %8 = load ptr, ptr %2, align 8
  %9 = load i8, ptr @ZVerifyMarking, align 1
  %10 = trunc i8 %9 to i1
  br i1 %10, label %11, label %12

11:                                               ; preds = %1
  call void @_ZNK5XMark23verify_all_stacks_emptyEv(ptr noundef nonnull align 64 dereferenceable(2492) %8)
  br label %12

12:                                               ; preds = %11, %1
  %13 = load i32, ptr @XGlobalSeqNum, align 4
  %14 = add i32 %13, 1
  store i32 %14, ptr @XGlobalSeqNum, align 4
  call void @_ZN9CodeCache25on_gc_marking_cycle_startEv()
  %15 = getelementptr inbounds %class.XMark, ptr %8, i32 0, i32 10
  store i64 0, ptr %15, align 8
  %16 = getelementptr inbounds %class.XMark, ptr %8, i32 0, i32 11
  store i64 0, ptr %16, align 32
  %17 = getelementptr inbounds %class.XMark, ptr %8, i32 0, i32 12
  store i64 0, ptr %17, align 8
  %18 = getelementptr inbounds %class.XMark, ptr %8, i32 0, i32 13
  store i64 0, ptr %18, align 16
  %19 = getelementptr inbounds %class.XMark, ptr %8, i32 0, i32 0
  %20 = load ptr, ptr %19, align 64
  %21 = call noundef i32 @_ZNK8XWorkers14active_workersEv(ptr noundef nonnull align 8 dereferenceable(120) %20)
  %22 = getelementptr inbounds %class.XMark, ptr %8, i32 0, i32 14
  store i32 %21, ptr %22, align 8
  %23 = getelementptr inbounds %class.XMark, ptr %8, i32 0, i32 14
  %24 = load i32, ptr %23, align 8
  %25 = call noundef i64 @_ZNK5XMark18calculate_nstripesEj(ptr noundef nonnull align 64 dereferenceable(2492) %8, i32 noundef %24)
  store i64 %25, ptr %3, align 8
  %26 = getelementptr inbounds %class.XMark, ptr %8, i32 0, i32 4
  %27 = load i64, ptr %3, align 8
  call void @_ZN14XMarkStripeSet12set_nstripesEm(ptr noundef nonnull align 64 dereferenceable(2112) %26, i64 noundef %27)
  %28 = load i64, ptr %3, align 8
  call void @_ZN9XStatMark17set_at_mark_startEm(i64 noundef %28)
  call void @_ZN13LogTargetImplILN8LogLevel4typeE2ELN6LogTag4typeE49ELS3_80ELS3_0ELS3_0ELS3_0ELS3_0EEC2Ev(ptr noundef nonnull align 1 dereferenceable(1) %4)
  %29 = call noundef zeroext i1 @_ZN13LogTargetImplILN8LogLevel4typeE2ELN6LogTag4typeE49ELS3_80ELS3_0ELS3_0ELS3_0ELS3_0EE10is_enabledEv()
  br i1 %29, label %30, label %54

30:                                               ; preds = %12
  call void (ptr, ...) @_ZN13LogTargetImplILN8LogLevel4typeE2ELN6LogTag4typeE49ELS3_80ELS3_0ELS3_0ELS3_0ELS3_0EE5printEPKcz(ptr noundef @.str.11)
  store i32 0, ptr %5, align 4
  br label %31

31:                                               ; preds = %50, %30
  %32 = load i32, ptr %5, align 4
  %33 = getelementptr inbounds %class.XMark, ptr %8, i32 0, i32 14
  %34 = load i32, ptr %33, align 8
  %35 = icmp ult i32 %32, %34
  br i1 %35, label %36, label %53

36:                                               ; preds = %31
  %37 = getelementptr inbounds %class.XMark, ptr %8, i32 0, i32 4
  %38 = getelementptr inbounds %class.XMark, ptr %8, i32 0, i32 14
  %39 = load i32, ptr %38, align 8
  %40 = load i32, ptr %5, align 4
  %41 = call noundef ptr @_ZN14XMarkStripeSet17stripe_for_workerEjj(ptr noundef nonnull align 64 dereferenceable(2112) %37, i32 noundef %39, i32 noundef %40)
  store ptr %41, ptr %6, align 8
  %42 = getelementptr inbounds %class.XMark, ptr %8, i32 0, i32 4
  %43 = load ptr, ptr %6, align 8
  %44 = call noundef i64 @_ZNK14XMarkStripeSet9stripe_idEPK11XMarkStripe(ptr noundef nonnull align 64 dereferenceable(2112) %42, ptr noundef %43)
  store i64 %44, ptr %7, align 8
  %45 = load i32, ptr %5, align 4
  %46 = getelementptr inbounds %class.XMark, ptr %8, i32 0, i32 14
  %47 = load i32, ptr %46, align 8
  %48 = load i64, ptr %7, align 8
  %49 = load i64, ptr %3, align 8
  call void (ptr, ...) @_ZN13LogTargetImplILN8LogLevel4typeE2ELN6LogTag4typeE49ELS3_80ELS3_0ELS3_0ELS3_0ELS3_0EE5printEPKcz(ptr noundef @.str.12, i32 noundef %45, i32 noundef %47, i64 noundef %48, i64 noundef %49)
  br label %50

50:                                               ; preds = %36
  %51 = load i32, ptr %5, align 4
  %52 = add i32 %51, 1
  store i32 %52, ptr %5, align 4
  br label %31, !llvm.loop !6

53:                                               ; preds = %31
  br label %54

54:                                               ; preds = %53, %12
  ret void
}