; Function Attrs: mustprogress nounwind uwtable
define hidden void @_ZN5XMark5startEv(ptr noundef nonnull align 64 dereferenceable(2492) %0) local_unnamed_addr #0 align 2 {
  %2 = alloca %class.XVerifyMarkStacksEmptyClosure, align 8
  %3 = load i8, ptr @ZVerifyMarking, align 1
  %4 = trunc i8 %3 to i1
  br i1 %4, label %5, label %11

5:                                                ; preds = %1
  call void @llvm.lifetime.start.p0(i64 16, ptr nonnull %2)
  %6 = getelementptr inbounds i8, ptr %0, i64 192
  store ptr getelementptr inbounds inrange(-16, 8) (i8, ptr @_ZTV29XVerifyMarkStacksEmptyClosure, i64 16), ptr %2, align 8
  %7 = getelementptr inbounds i8, ptr %2, i64 8
  store ptr %6, ptr %7, align 8
  call void @_ZN7Threads10threads_doEP13ThreadClosure(ptr noundef nonnull %2) #17
  %8 = call noundef zeroext i1 @_ZNK14XMarkStripeSet8is_emptyEv(ptr noundef nonnull align 64 dereferenceable(2112) %6) #17
  br i1 %8, label %_ZNK5XMark23verify_all_stacks_emptyEv.exit, label %9

9:                                                ; preds = %5
  %10 = load ptr, ptr @g_assert_poison, align 8
  store i8 88, ptr %10, align 1
  call void (ptr, i32, ptr, ptr, ...) @_Z15report_vm_errorPKciS0_S0_z(ptr noundef nonnull @.str.13, i32 noundef 876, ptr noundef nonnull @.str.14, ptr noundef nonnull @.str.15) #18
  unreachable

_ZNK5XMark23verify_all_stacks_emptyEv.exit:       ; preds = %5
  call void @llvm.lifetime.end.p0(i64 16, ptr nonnull %2)
  br label %11

11:                                               ; preds = %_ZNK5XMark23verify_all_stacks_emptyEv.exit, %1
  %12 = load i32, ptr @XGlobalSeqNum, align 4
  %13 = add i32 %12, 1
  store i32 %13, ptr @XGlobalSeqNum, align 4
  call void @_ZN9CodeCache25on_gc_marking_cycle_startEv() #17
  %14 = getelementptr inbounds i8, ptr %0, i64 2456
  call void @llvm.memset.p0.i64(ptr noundef nonnull align 8 dereferenceable(32) %14, i8 0, i64 32, i1 false)
  %15 = load ptr, ptr %0, align 64
  %16 = call noundef i32 @_ZNK8XWorkers14active_workersEv(ptr noundef nonnull align 8 dereferenceable(120) %15) #17
  %17 = getelementptr inbounds i8, ptr %0, i64 2488
  store i32 %16, ptr %17, align 8
  %18 = call noundef range(i32 0, 33) i32 @llvm.ctlz.i32(i32 %16, i1 true)
  %19 = xor i32 %18, 31
  %20 = shl nuw i32 1, %19
  %21 = call i32 @llvm.umin.i32(i32 %20, i32 16)
  %22 = zext nneg i32 %21 to i64
  %23 = getelementptr inbounds i8, ptr %0, i64 192
  call void @_ZN14XMarkStripeSet12set_nstripesEm(ptr noundef nonnull align 64 dereferenceable(2112) %23, i64 noundef %22) #17
  call void @_ZN9XStatMark17set_at_mark_startEm(i64 noundef %22) #17
  %24 = load volatile ptr, ptr getelementptr inbounds (i8, ptr @_ZN16LogTagSetMappingILN6LogTag4typeE49ELS1_80ELS1_0ELS1_0ELS1_0ELS1_0EE7_tagsetE, i64 56), align 8
  %.not = icmp eq ptr %24, null
  br i1 %.not, label %.loopexit, label %25

25:                                               ; preds = %11
  call void (ptr, ...) @_ZN13LogTargetImplILN8LogLevel4typeE2ELN6LogTag4typeE49ELS3_80ELS3_0ELS3_0ELS3_0ELS3_0EE5printEPKcz(ptr noundef nonnull @.str.11)
  %26 = load i32, ptr %17, align 8
  %.not11 = icmp eq i32 %26, 0
  br i1 %.not11, label %.loopexit, label %.lr.ph

.lr.ph:                                           ; preds = %25
  %27 = getelementptr inbounds i8, ptr %0, i64 256
  %28 = ptrtoint ptr %27 to i64
  br label %29

29:                                               ; preds = %.lr.ph, %29
  %30 = phi i32 [ %26, %.lr.ph ], [ %37, %29 ]
  %.010 = phi i32 [ 0, %.lr.ph ], [ %36, %29 ]
  %31 = call noundef ptr @_ZN14XMarkStripeSet17stripe_for_workerEjj(ptr noundef nonnull align 64 dereferenceable(2112) %23, i32 noundef %30, i32 noundef %.010) #17
  %32 = ptrtoint ptr %31 to i64
  %33 = sub i64 %32, %28
  %34 = lshr i64 %33, 7
  %35 = load i32, ptr %17, align 8
  call void (ptr, ...) @_ZN13LogTargetImplILN8LogLevel4typeE2ELN6LogTag4typeE49ELS3_80ELS3_0ELS3_0ELS3_0ELS3_0EE5printEPKcz(ptr noundef nonnull @.str.12, i32 noundef %.010, i32 noundef %35, i64 noundef %34, i64 noundef %22)
  %36 = add nuw i32 %.010, 1
  %37 = load i32, ptr %17, align 8
  %38 = icmp ult i32 %36, %37
  br i1 %38, label %29, label %.loopexit, !llvm.loop !6

.loopexit:                                        ; preds = %29, %25, %11
  ret void
}